ARM GAS  C:\Users\kotaro\AppData\Local\Temp\ccBvSoi6.s 			page 1


   1              		.cpu cortex-m4
   2              		.eabi_attribute 27, 1
   3              		.eabi_attribute 28, 1
   4              		.eabi_attribute 20, 1
   5              		.eabi_attribute 21, 1
   6              		.eabi_attribute 23, 3
   7              		.eabi_attribute 24, 1
   8              		.eabi_attribute 25, 1
   9              		.eabi_attribute 26, 1
  10              		.eabi_attribute 30, 1
  11              		.eabi_attribute 34, 1
  12              		.eabi_attribute 18, 4
  13              		.file	"adc.c"
  14              		.text
  15              	.Ltext0:
  16              		.cfi_sections	.debug_frame
  17              		.section	.text.MX_ADC1_Init,"ax",%progbits
  18              		.align	1
  19              		.global	MX_ADC1_Init
  20              		.syntax unified
  21              		.thumb
  22              		.thumb_func
  23              		.fpu fpv4-sp-d16
  25              	MX_ADC1_Init:
  26              	.LFB126:
  27              		.file 1 "Src/adc.c"
   1:Src/adc.c     **** /**
   2:Src/adc.c     ****   ******************************************************************************
   3:Src/adc.c     ****   * File Name          : ADC.c
   4:Src/adc.c     ****   * Description        : This file provides code for the configuration
   5:Src/adc.c     ****   *                      of the ADC instances.
   6:Src/adc.c     ****   ******************************************************************************
   7:Src/adc.c     ****   ** This notice applies to any and all portions of this file
   8:Src/adc.c     ****   * that are not between comment pairs USER CODE BEGIN and
   9:Src/adc.c     ****   * USER CODE END. Other portions of this file, whether 
  10:Src/adc.c     ****   * inserted by the user or by software development tools
  11:Src/adc.c     ****   * are owned by their respective copyright owners.
  12:Src/adc.c     ****   *
  13:Src/adc.c     ****   * COPYRIGHT(c) 2018 STMicroelectronics
  14:Src/adc.c     ****   *
  15:Src/adc.c     ****   * Redistribution and use in source and binary forms, with or without modification,
  16:Src/adc.c     ****   * are permitted provided that the following conditions are met:
  17:Src/adc.c     ****   *   1. Redistributions of source code must retain the above copyright notice,
  18:Src/adc.c     ****   *      this list of conditions and the following disclaimer.
  19:Src/adc.c     ****   *   2. Redistributions in binary form must reproduce the above copyright notice,
  20:Src/adc.c     ****   *      this list of conditions and the following disclaimer in the documentation
  21:Src/adc.c     ****   *      and/or other materials provided with the distribution.
  22:Src/adc.c     ****   *   3. Neither the name of STMicroelectronics nor the names of its contributors
  23:Src/adc.c     ****   *      may be used to endorse or promote products derived from this software
  24:Src/adc.c     ****   *      without specific prior written permission.
  25:Src/adc.c     ****   *
  26:Src/adc.c     ****   * THIS SOFTWARE IS PROVIDED BY THE COPYRIGHT HOLDERS AND CONTRIBUTORS "AS IS"
  27:Src/adc.c     ****   * AND ANY EXPRESS OR IMPLIED WARRANTIES, INCLUDING, BUT NOT LIMITED TO, THE
  28:Src/adc.c     ****   * IMPLIED WARRANTIES OF MERCHANTABILITY AND FITNESS FOR A PARTICULAR PURPOSE ARE
  29:Src/adc.c     ****   * DISCLAIMED. IN NO EVENT SHALL THE COPYRIGHT HOLDER OR CONTRIBUTORS BE LIABLE
  30:Src/adc.c     ****   * FOR ANY DIRECT, INDIRECT, INCIDENTAL, SPECIAL, EXEMPLARY, OR CONSEQUENTIAL
  31:Src/adc.c     ****   * DAMAGES (INCLUDING, BUT NOT LIMITED TO, PROCUREMENT OF SUBSTITUTE GOODS OR
ARM GAS  C:\Users\kotaro\AppData\Local\Temp\ccBvSoi6.s 			page 2


  32:Src/adc.c     ****   * SERVICES; LOSS OF USE, DATA, OR PROFITS; OR BUSINESS INTERRUPTION) HOWEVER
  33:Src/adc.c     ****   * CAUSED AND ON ANY THEORY OF LIABILITY, WHETHER IN CONTRACT, STRICT LIABILITY,
  34:Src/adc.c     ****   * OR TORT (INCLUDING NEGLIGENCE OR OTHERWISE) ARISING IN ANY WAY OUT OF THE USE
  35:Src/adc.c     ****   * OF THIS SOFTWARE, EVEN IF ADVISED OF THE POSSIBILITY OF SUCH DAMAGE.
  36:Src/adc.c     ****   *
  37:Src/adc.c     ****   ******************************************************************************
  38:Src/adc.c     ****   */
  39:Src/adc.c     **** 
  40:Src/adc.c     **** /* Includes ------------------------------------------------------------------*/
  41:Src/adc.c     **** #include "adc.h"
  42:Src/adc.c     **** 
  43:Src/adc.c     **** #include "gpio.h"
  44:Src/adc.c     **** #include "dma.h"
  45:Src/adc.c     **** 
  46:Src/adc.c     **** /* USER CODE BEGIN 0 */
  47:Src/adc.c     **** #include "global.h"
  48:Src/adc.c     **** 
  49:Src/adc.c     **** uint16_t thresh_l = 1900;
  50:Src/adc.c     **** uint16_t thresh_r= 2200;
  51:Src/adc.c     **** uint16_t thresh_fr=2400;
  52:Src/adc.c     **** /* USER CODE END 0 */
  53:Src/adc.c     **** 
  54:Src/adc.c     **** ADC_HandleTypeDef hadc1;
  55:Src/adc.c     **** ADC_HandleTypeDef hadc2;
  56:Src/adc.c     **** DMA_HandleTypeDef hdma_adc1;
  57:Src/adc.c     **** 
  58:Src/adc.c     **** /* ADC1 init function */
  59:Src/adc.c     **** void MX_ADC1_Init(void)
  60:Src/adc.c     **** {
  28              		.loc 1 60 0
  29              		.cfi_startproc
  30              		@ args = 0, pretend = 0, frame = 16
  31              		@ frame_needed = 0, uses_anonymous_args = 0
  32 0000 00B5     		push	{lr}
  33              	.LCFI0:
  34              		.cfi_def_cfa_offset 4
  35              		.cfi_offset 14, -4
  36 0002 85B0     		sub	sp, sp, #20
  37              	.LCFI1:
  38              		.cfi_def_cfa_offset 24
  61:Src/adc.c     ****   ADC_ChannelConfTypeDef sConfig;
  62:Src/adc.c     **** 
  63:Src/adc.c     ****     /**Configure the global features of the ADC (Clock, Resolution, Data Alignment and number of co
  64:Src/adc.c     ****     */
  65:Src/adc.c     ****   hadc1.Instance = ADC1;
  39              		.loc 1 65 0
  40 0004 2D48     		ldr	r0, .L13
  41 0006 2E4B     		ldr	r3, .L13+4
  42 0008 0360     		str	r3, [r0]
  66:Src/adc.c     ****   hadc1.Init.ClockPrescaler = ADC_CLOCK_SYNC_PCLK_DIV4;
  43              		.loc 1 66 0
  44 000a 4FF48033 		mov	r3, #65536
  45 000e 4360     		str	r3, [r0, #4]
  67:Src/adc.c     ****   hadc1.Init.Resolution = ADC_RESOLUTION_10B;
  46              		.loc 1 67 0
  47 0010 4FF08073 		mov	r3, #16777216
  48 0014 8360     		str	r3, [r0, #8]
ARM GAS  C:\Users\kotaro\AppData\Local\Temp\ccBvSoi6.s 			page 3


  68:Src/adc.c     ****   hadc1.Init.ScanConvMode = ENABLE;
  49              		.loc 1 68 0
  50 0016 0123     		movs	r3, #1
  51 0018 0361     		str	r3, [r0, #16]
  69:Src/adc.c     ****   hadc1.Init.ContinuousConvMode = ENABLE;
  52              		.loc 1 69 0
  53 001a 8361     		str	r3, [r0, #24]
  70:Src/adc.c     ****   hadc1.Init.DiscontinuousConvMode = DISABLE;
  54              		.loc 1 70 0
  55 001c 0022     		movs	r2, #0
  56 001e 0262     		str	r2, [r0, #32]
  71:Src/adc.c     ****   hadc1.Init.ExternalTrigConvEdge = ADC_EXTERNALTRIGCONVEDGE_NONE;
  57              		.loc 1 71 0
  58 0020 C262     		str	r2, [r0, #44]
  72:Src/adc.c     ****   hadc1.Init.ExternalTrigConv = ADC_SOFTWARE_START;
  59              		.loc 1 72 0
  60 0022 2849     		ldr	r1, .L13+8
  61 0024 8162     		str	r1, [r0, #40]
  73:Src/adc.c     ****   hadc1.Init.DataAlign = ADC_DATAALIGN_RIGHT;
  62              		.loc 1 73 0
  63 0026 C260     		str	r2, [r0, #12]
  74:Src/adc.c     ****   hadc1.Init.NbrOfConversion = 4;
  64              		.loc 1 74 0
  65 0028 0422     		movs	r2, #4
  66 002a C261     		str	r2, [r0, #28]
  75:Src/adc.c     ****   hadc1.Init.DMAContinuousRequests = ENABLE;
  67              		.loc 1 75 0
  68 002c 0363     		str	r3, [r0, #48]
  76:Src/adc.c     ****   hadc1.Init.EOCSelection = ADC_EOC_SINGLE_CONV;
  69              		.loc 1 76 0
  70 002e 4361     		str	r3, [r0, #20]
  77:Src/adc.c     ****   if (HAL_ADC_Init(&hadc1) != HAL_OK)
  71              		.loc 1 77 0
  72 0030 FFF7FEFF 		bl	HAL_ADC_Init
  73              	.LVL0:
  74 0034 40BB     		cbnz	r0, .L8
  75              	.L2:
  78:Src/adc.c     ****   {
  79:Src/adc.c     ****     _Error_Handler(__FILE__, __LINE__);
  80:Src/adc.c     ****   }
  81:Src/adc.c     **** 
  82:Src/adc.c     ****     /**Configure for the selected ADC regular channel its corresponding rank in the sequencer and i
  83:Src/adc.c     ****     */
  84:Src/adc.c     ****   sConfig.Channel = ADC_CHANNEL_0;
  76              		.loc 1 84 0
  77 0036 0023     		movs	r3, #0
  78 0038 0093     		str	r3, [sp]
  85:Src/adc.c     ****   sConfig.Rank = 1;
  79              		.loc 1 85 0
  80 003a 0123     		movs	r3, #1
  81 003c 0193     		str	r3, [sp, #4]
  86:Src/adc.c     ****   sConfig.SamplingTime = ADC_SAMPLETIME_28CYCLES;
  82              		.loc 1 86 0
  83 003e 0223     		movs	r3, #2
  84 0040 0293     		str	r3, [sp, #8]
  87:Src/adc.c     ****   if (HAL_ADC_ConfigChannel(&hadc1, &sConfig) != HAL_OK)
  85              		.loc 1 87 0
ARM GAS  C:\Users\kotaro\AppData\Local\Temp\ccBvSoi6.s 			page 4


  86 0042 6946     		mov	r1, sp
  87 0044 1D48     		ldr	r0, .L13
  88 0046 FFF7FEFF 		bl	HAL_ADC_ConfigChannel
  89              	.LVL1:
  90 004a 10BB     		cbnz	r0, .L9
  91              	.L3:
  88:Src/adc.c     ****   {
  89:Src/adc.c     ****     _Error_Handler(__FILE__, __LINE__);
  90:Src/adc.c     ****   }
  91:Src/adc.c     **** 
  92:Src/adc.c     ****     /**Configure for the selected ADC regular channel its corresponding rank in the sequencer and i
  93:Src/adc.c     ****     */
  94:Src/adc.c     ****   sConfig.Channel = ADC_CHANNEL_1;
  92              		.loc 1 94 0
  93 004c 0123     		movs	r3, #1
  94 004e 0093     		str	r3, [sp]
  95:Src/adc.c     ****   sConfig.Rank = 2;
  95              		.loc 1 95 0
  96 0050 0223     		movs	r3, #2
  97 0052 0193     		str	r3, [sp, #4]
  96:Src/adc.c     ****   if (HAL_ADC_ConfigChannel(&hadc1, &sConfig) != HAL_OK)
  98              		.loc 1 96 0
  99 0054 6946     		mov	r1, sp
 100 0056 1948     		ldr	r0, .L13
 101 0058 FFF7FEFF 		bl	HAL_ADC_ConfigChannel
 102              	.LVL2:
 103 005c F0B9     		cbnz	r0, .L10
 104              	.L4:
  97:Src/adc.c     ****   {
  98:Src/adc.c     ****     _Error_Handler(__FILE__, __LINE__);
  99:Src/adc.c     ****   }
 100:Src/adc.c     **** 
 101:Src/adc.c     ****     /**Configure for the selected ADC regular channel its corresponding rank in the sequencer and i
 102:Src/adc.c     ****     */
 103:Src/adc.c     ****   sConfig.Channel = ADC_CHANNEL_2;
 105              		.loc 1 103 0
 106 005e 0223     		movs	r3, #2
 107 0060 0093     		str	r3, [sp]
 104:Src/adc.c     ****   sConfig.Rank = 3;
 108              		.loc 1 104 0
 109 0062 0323     		movs	r3, #3
 110 0064 0193     		str	r3, [sp, #4]
 105:Src/adc.c     ****   if (HAL_ADC_ConfigChannel(&hadc1, &sConfig) != HAL_OK)
 111              		.loc 1 105 0
 112 0066 6946     		mov	r1, sp
 113 0068 1448     		ldr	r0, .L13
 114 006a FFF7FEFF 		bl	HAL_ADC_ConfigChannel
 115              	.LVL3:
 116 006e D0B9     		cbnz	r0, .L11
 117              	.L5:
 106:Src/adc.c     ****   {
 107:Src/adc.c     ****     _Error_Handler(__FILE__, __LINE__);
 108:Src/adc.c     ****   }
 109:Src/adc.c     **** 
 110:Src/adc.c     ****     /**Configure for the selected ADC regular channel its corresponding rank in the sequencer and i
 111:Src/adc.c     ****     */
 112:Src/adc.c     ****   sConfig.Channel = ADC_CHANNEL_3;
ARM GAS  C:\Users\kotaro\AppData\Local\Temp\ccBvSoi6.s 			page 5


 118              		.loc 1 112 0
 119 0070 0323     		movs	r3, #3
 120 0072 0093     		str	r3, [sp]
 113:Src/adc.c     ****   sConfig.Rank = 4;
 121              		.loc 1 113 0
 122 0074 0423     		movs	r3, #4
 123 0076 0193     		str	r3, [sp, #4]
 114:Src/adc.c     ****   if (HAL_ADC_ConfigChannel(&hadc1, &sConfig) != HAL_OK)
 124              		.loc 1 114 0
 125 0078 6946     		mov	r1, sp
 126 007a 1048     		ldr	r0, .L13
 127 007c FFF7FEFF 		bl	HAL_ADC_ConfigChannel
 128              	.LVL4:
 129 0080 B0B9     		cbnz	r0, .L12
 130              	.L1:
 115:Src/adc.c     ****   {
 116:Src/adc.c     ****     _Error_Handler(__FILE__, __LINE__);
 117:Src/adc.c     ****   }
 118:Src/adc.c     **** 
 119:Src/adc.c     **** }
 131              		.loc 1 119 0
 132 0082 05B0     		add	sp, sp, #20
 133              	.LCFI2:
 134              		.cfi_remember_state
 135              		.cfi_def_cfa_offset 4
 136              		@ sp needed
 137 0084 5DF804FB 		ldr	pc, [sp], #4
 138              	.L8:
 139              	.LCFI3:
 140              		.cfi_restore_state
  79:Src/adc.c     ****   }
 141              		.loc 1 79 0
 142 0088 4F21     		movs	r1, #79
 143 008a 0F48     		ldr	r0, .L13+12
 144 008c FFF7FEFF 		bl	_Error_Handler
 145              	.LVL5:
 146 0090 D1E7     		b	.L2
 147              	.L9:
  89:Src/adc.c     ****   }
 148              		.loc 1 89 0
 149 0092 5921     		movs	r1, #89
 150 0094 0C48     		ldr	r0, .L13+12
 151 0096 FFF7FEFF 		bl	_Error_Handler
 152              	.LVL6:
 153 009a D7E7     		b	.L3
 154              	.L10:
  98:Src/adc.c     ****   }
 155              		.loc 1 98 0
 156 009c 6221     		movs	r1, #98
 157 009e 0A48     		ldr	r0, .L13+12
 158 00a0 FFF7FEFF 		bl	_Error_Handler
 159              	.LVL7:
 160 00a4 DBE7     		b	.L4
 161              	.L11:
 107:Src/adc.c     ****   }
 162              		.loc 1 107 0
 163 00a6 6B21     		movs	r1, #107
ARM GAS  C:\Users\kotaro\AppData\Local\Temp\ccBvSoi6.s 			page 6


 164 00a8 0748     		ldr	r0, .L13+12
 165 00aa FFF7FEFF 		bl	_Error_Handler
 166              	.LVL8:
 167 00ae DFE7     		b	.L5
 168              	.L12:
 116:Src/adc.c     ****   }
 169              		.loc 1 116 0
 170 00b0 7421     		movs	r1, #116
 171 00b2 0548     		ldr	r0, .L13+12
 172 00b4 FFF7FEFF 		bl	_Error_Handler
 173              	.LVL9:
 174              		.loc 1 119 0
 175 00b8 E3E7     		b	.L1
 176              	.L14:
 177 00ba 00BF     		.align	2
 178              	.L13:
 179 00bc 00000000 		.word	hadc1
 180 00c0 00200140 		.word	1073815552
 181 00c4 0100000F 		.word	251658241
 182 00c8 00000000 		.word	.LC0
 183              		.cfi_endproc
 184              	.LFE126:
 186              		.section	.text.MX_ADC2_Init,"ax",%progbits
 187              		.align	1
 188              		.global	MX_ADC2_Init
 189              		.syntax unified
 190              		.thumb
 191              		.thumb_func
 192              		.fpu fpv4-sp-d16
 194              	MX_ADC2_Init:
 195              	.LFB127:
 120:Src/adc.c     **** /* ADC2 init function */
 121:Src/adc.c     **** void MX_ADC2_Init(void)
 122:Src/adc.c     **** {
 196              		.loc 1 122 0
 197              		.cfi_startproc
 198              		@ args = 0, pretend = 0, frame = 16
 199              		@ frame_needed = 0, uses_anonymous_args = 0
 200 0000 00B5     		push	{lr}
 201              	.LCFI4:
 202              		.cfi_def_cfa_offset 4
 203              		.cfi_offset 14, -4
 204 0002 85B0     		sub	sp, sp, #20
 205              	.LCFI5:
 206              		.cfi_def_cfa_offset 24
 123:Src/adc.c     ****   ADC_ChannelConfTypeDef sConfig;
 124:Src/adc.c     **** 
 125:Src/adc.c     ****     /**Configure the global features of the ADC (Clock, Resolution, Data Alignment and number of co
 126:Src/adc.c     ****     */
 127:Src/adc.c     ****   hadc2.Instance = ADC2;
 207              		.loc 1 127 0
 208 0004 1648     		ldr	r0, .L21
 209 0006 174B     		ldr	r3, .L21+4
 210 0008 0360     		str	r3, [r0]
 128:Src/adc.c     ****   hadc2.Init.ClockPrescaler = ADC_CLOCK_SYNC_PCLK_DIV4;
 211              		.loc 1 128 0
 212 000a 4FF48033 		mov	r3, #65536
ARM GAS  C:\Users\kotaro\AppData\Local\Temp\ccBvSoi6.s 			page 7


 213 000e 4360     		str	r3, [r0, #4]
 129:Src/adc.c     ****   hadc2.Init.Resolution = ADC_RESOLUTION_12B;
 214              		.loc 1 129 0
 215 0010 0023     		movs	r3, #0
 216 0012 8360     		str	r3, [r0, #8]
 130:Src/adc.c     ****   hadc2.Init.ScanConvMode = DISABLE;
 217              		.loc 1 130 0
 218 0014 0361     		str	r3, [r0, #16]
 131:Src/adc.c     ****   hadc2.Init.ContinuousConvMode = DISABLE;
 219              		.loc 1 131 0
 220 0016 8361     		str	r3, [r0, #24]
 132:Src/adc.c     ****   hadc2.Init.DiscontinuousConvMode = DISABLE;
 221              		.loc 1 132 0
 222 0018 0362     		str	r3, [r0, #32]
 133:Src/adc.c     ****   hadc2.Init.ExternalTrigConvEdge = ADC_EXTERNALTRIGCONVEDGE_NONE;
 223              		.loc 1 133 0
 224 001a C362     		str	r3, [r0, #44]
 134:Src/adc.c     ****   hadc2.Init.ExternalTrigConv = ADC_SOFTWARE_START;
 225              		.loc 1 134 0
 226 001c 124A     		ldr	r2, .L21+8
 227 001e 8262     		str	r2, [r0, #40]
 135:Src/adc.c     ****   hadc2.Init.DataAlign = ADC_DATAALIGN_RIGHT;
 228              		.loc 1 135 0
 229 0020 C360     		str	r3, [r0, #12]
 136:Src/adc.c     ****   hadc2.Init.NbrOfConversion = 1;
 230              		.loc 1 136 0
 231 0022 0122     		movs	r2, #1
 232 0024 C261     		str	r2, [r0, #28]
 137:Src/adc.c     ****   hadc2.Init.DMAContinuousRequests = DISABLE;
 233              		.loc 1 137 0
 234 0026 0363     		str	r3, [r0, #48]
 138:Src/adc.c     ****   hadc2.Init.EOCSelection = ADC_EOC_SINGLE_CONV;
 235              		.loc 1 138 0
 236 0028 4261     		str	r2, [r0, #20]
 139:Src/adc.c     ****   if (HAL_ADC_Init(&hadc2) != HAL_OK)
 237              		.loc 1 139 0
 238 002a FFF7FEFF 		bl	HAL_ADC_Init
 239              	.LVL10:
 240 002e 68B9     		cbnz	r0, .L19
 241              	.L16:
 140:Src/adc.c     ****   {
 141:Src/adc.c     ****     _Error_Handler(__FILE__, __LINE__);
 142:Src/adc.c     ****   }
 143:Src/adc.c     **** 
 144:Src/adc.c     ****     /**Configure for the selected ADC regular channel its corresponding rank in the sequencer and i
 145:Src/adc.c     ****     */
 146:Src/adc.c     ****   sConfig.Channel = ADC_CHANNEL_4;
 242              		.loc 1 146 0
 243 0030 0423     		movs	r3, #4
 244 0032 0093     		str	r3, [sp]
 147:Src/adc.c     ****   sConfig.Rank = 1;
 245              		.loc 1 147 0
 246 0034 0123     		movs	r3, #1
 247 0036 0193     		str	r3, [sp, #4]
 148:Src/adc.c     ****   sConfig.SamplingTime = ADC_SAMPLETIME_3CYCLES;
 248              		.loc 1 148 0
 249 0038 0023     		movs	r3, #0
ARM GAS  C:\Users\kotaro\AppData\Local\Temp\ccBvSoi6.s 			page 8


 250 003a 0293     		str	r3, [sp, #8]
 149:Src/adc.c     ****   if (HAL_ADC_ConfigChannel(&hadc2, &sConfig) != HAL_OK)
 251              		.loc 1 149 0
 252 003c 6946     		mov	r1, sp
 253 003e 0848     		ldr	r0, .L21
 254 0040 FFF7FEFF 		bl	HAL_ADC_ConfigChannel
 255              	.LVL11:
 256 0044 38B9     		cbnz	r0, .L20
 257              	.L15:
 150:Src/adc.c     ****   {
 151:Src/adc.c     ****     _Error_Handler(__FILE__, __LINE__);
 152:Src/adc.c     ****   }
 153:Src/adc.c     **** 
 154:Src/adc.c     **** }
 258              		.loc 1 154 0
 259 0046 05B0     		add	sp, sp, #20
 260              	.LCFI6:
 261              		.cfi_remember_state
 262              		.cfi_def_cfa_offset 4
 263              		@ sp needed
 264 0048 5DF804FB 		ldr	pc, [sp], #4
 265              	.L19:
 266              	.LCFI7:
 267              		.cfi_restore_state
 141:Src/adc.c     ****   }
 268              		.loc 1 141 0
 269 004c 8D21     		movs	r1, #141
 270 004e 0748     		ldr	r0, .L21+12
 271 0050 FFF7FEFF 		bl	_Error_Handler
 272              	.LVL12:
 273 0054 ECE7     		b	.L16
 274              	.L20:
 151:Src/adc.c     ****   }
 275              		.loc 1 151 0
 276 0056 9721     		movs	r1, #151
 277 0058 0448     		ldr	r0, .L21+12
 278 005a FFF7FEFF 		bl	_Error_Handler
 279              	.LVL13:
 280              		.loc 1 154 0
 281 005e F2E7     		b	.L15
 282              	.L22:
 283              		.align	2
 284              	.L21:
 285 0060 00000000 		.word	hadc2
 286 0064 00210140 		.word	1073815808
 287 0068 0100000F 		.word	251658241
 288 006c 00000000 		.word	.LC0
 289              		.cfi_endproc
 290              	.LFE127:
 292              		.section	.text.HAL_ADC_MspInit,"ax",%progbits
 293              		.align	1
 294              		.global	HAL_ADC_MspInit
 295              		.syntax unified
 296              		.thumb
 297              		.thumb_func
 298              		.fpu fpv4-sp-d16
 300              	HAL_ADC_MspInit:
ARM GAS  C:\Users\kotaro\AppData\Local\Temp\ccBvSoi6.s 			page 9


 301              	.LFB128:
 155:Src/adc.c     **** 
 156:Src/adc.c     **** void HAL_ADC_MspInit(ADC_HandleTypeDef* adcHandle)
 157:Src/adc.c     **** {
 302              		.loc 1 157 0
 303              		.cfi_startproc
 304              		@ args = 0, pretend = 0, frame = 32
 305              		@ frame_needed = 0, uses_anonymous_args = 0
 306              	.LVL14:
 307 0000 30B5     		push	{r4, r5, lr}
 308              	.LCFI8:
 309              		.cfi_def_cfa_offset 12
 310              		.cfi_offset 4, -12
 311              		.cfi_offset 5, -8
 312              		.cfi_offset 14, -4
 313 0002 89B0     		sub	sp, sp, #36
 314              	.LCFI9:
 315              		.cfi_def_cfa_offset 48
 158:Src/adc.c     **** 
 159:Src/adc.c     ****   GPIO_InitTypeDef GPIO_InitStruct;
 160:Src/adc.c     ****   if(adcHandle->Instance==ADC1)
 316              		.loc 1 160 0
 317 0004 0368     		ldr	r3, [r0]
 318 0006 2A4A     		ldr	r2, .L31
 319 0008 9342     		cmp	r3, r2
 320 000a 04D0     		beq	.L28
 161:Src/adc.c     ****   {
 162:Src/adc.c     ****   /* USER CODE BEGIN ADC1_MspInit 0 */
 163:Src/adc.c     **** 
 164:Src/adc.c     ****   /* USER CODE END ADC1_MspInit 0 */
 165:Src/adc.c     ****     /* ADC1 clock enable */
 166:Src/adc.c     ****     __HAL_RCC_ADC1_CLK_ENABLE();
 167:Src/adc.c     ****   
 168:Src/adc.c     ****     /**ADC1 GPIO Configuration    
 169:Src/adc.c     ****     PA0-WKUP     ------> ADC1_IN0
 170:Src/adc.c     ****     PA1     ------> ADC1_IN1
 171:Src/adc.c     ****     PA2     ------> ADC1_IN2
 172:Src/adc.c     ****     PA3     ------> ADC1_IN3 
 173:Src/adc.c     ****     */
 174:Src/adc.c     ****     GPIO_InitStruct.Pin = GPIO_PIN_0|GPIO_PIN_1|GPIO_PIN_2|GPIO_PIN_3;
 175:Src/adc.c     ****     GPIO_InitStruct.Mode = GPIO_MODE_ANALOG;
 176:Src/adc.c     ****     GPIO_InitStruct.Pull = GPIO_NOPULL;
 177:Src/adc.c     ****     HAL_GPIO_Init(GPIOA, &GPIO_InitStruct);
 178:Src/adc.c     **** 
 179:Src/adc.c     ****     /* ADC1 DMA Init */
 180:Src/adc.c     ****     /* ADC1 Init */
 181:Src/adc.c     ****     hdma_adc1.Instance = DMA2_Stream0;
 182:Src/adc.c     ****     hdma_adc1.Init.Channel = DMA_CHANNEL_0;
 183:Src/adc.c     ****     hdma_adc1.Init.Direction = DMA_PERIPH_TO_MEMORY;
 184:Src/adc.c     ****     hdma_adc1.Init.PeriphInc = DMA_PINC_DISABLE;
 185:Src/adc.c     ****     hdma_adc1.Init.MemInc = DMA_MINC_ENABLE;
 186:Src/adc.c     ****     hdma_adc1.Init.PeriphDataAlignment = DMA_PDATAALIGN_HALFWORD;
 187:Src/adc.c     ****     hdma_adc1.Init.MemDataAlignment = DMA_MDATAALIGN_HALFWORD;
 188:Src/adc.c     ****     hdma_adc1.Init.Mode = DMA_NORMAL;
 189:Src/adc.c     ****     hdma_adc1.Init.Priority = DMA_PRIORITY_HIGH;
 190:Src/adc.c     ****     hdma_adc1.Init.FIFOMode = DMA_FIFOMODE_DISABLE;
 191:Src/adc.c     ****     if (HAL_DMA_Init(&hdma_adc1) != HAL_OK)
ARM GAS  C:\Users\kotaro\AppData\Local\Temp\ccBvSoi6.s 			page 10


 192:Src/adc.c     ****     {
 193:Src/adc.c     ****       _Error_Handler(__FILE__, __LINE__);
 194:Src/adc.c     ****     }
 195:Src/adc.c     **** 
 196:Src/adc.c     ****     __HAL_LINKDMA(adcHandle,DMA_Handle,hdma_adc1);
 197:Src/adc.c     **** 
 198:Src/adc.c     ****   /* USER CODE BEGIN ADC1_MspInit 1 */
 199:Src/adc.c     **** 
 200:Src/adc.c     ****   /* USER CODE END ADC1_MspInit 1 */
 201:Src/adc.c     ****   }
 202:Src/adc.c     ****   else if(adcHandle->Instance==ADC2)
 321              		.loc 1 202 0
 322 000c 294A     		ldr	r2, .L31+4
 323 000e 9342     		cmp	r3, r2
 324 0010 37D0     		beq	.L29
 325              	.LVL15:
 326              	.L23:
 203:Src/adc.c     ****   {
 204:Src/adc.c     ****   /* USER CODE BEGIN ADC2_MspInit 0 */
 205:Src/adc.c     **** 
 206:Src/adc.c     ****   /* USER CODE END ADC2_MspInit 0 */
 207:Src/adc.c     ****     /* ADC2 clock enable */
 208:Src/adc.c     ****     __HAL_RCC_ADC2_CLK_ENABLE();
 209:Src/adc.c     ****   
 210:Src/adc.c     ****     /**ADC2 GPIO Configuration    
 211:Src/adc.c     ****     PA4     ------> ADC2_IN4 
 212:Src/adc.c     ****     */
 213:Src/adc.c     ****     GPIO_InitStruct.Pin = GPIO_PIN_4;
 214:Src/adc.c     ****     GPIO_InitStruct.Mode = GPIO_MODE_ANALOG;
 215:Src/adc.c     ****     GPIO_InitStruct.Pull = GPIO_NOPULL;
 216:Src/adc.c     ****     HAL_GPIO_Init(GPIOA, &GPIO_InitStruct);
 217:Src/adc.c     **** 
 218:Src/adc.c     ****   /* USER CODE BEGIN ADC2_MspInit 1 */
 219:Src/adc.c     **** 
 220:Src/adc.c     ****   /* USER CODE END ADC2_MspInit 1 */
 221:Src/adc.c     ****   }
 222:Src/adc.c     **** }
 327              		.loc 1 222 0
 328 0012 09B0     		add	sp, sp, #36
 329              	.LCFI10:
 330              		.cfi_remember_state
 331              		.cfi_def_cfa_offset 12
 332              		@ sp needed
 333 0014 30BD     		pop	{r4, r5, pc}
 334              	.LVL16:
 335              	.L28:
 336              	.LCFI11:
 337              		.cfi_restore_state
 338 0016 0446     		mov	r4, r0
 339              	.LBB2:
 166:Src/adc.c     ****   
 340              		.loc 1 166 0
 341 0018 0025     		movs	r5, #0
 342 001a 0195     		str	r5, [sp, #4]
 343 001c 264B     		ldr	r3, .L31+8
 344 001e 5A6C     		ldr	r2, [r3, #68]
 345 0020 42F48072 		orr	r2, r2, #256
ARM GAS  C:\Users\kotaro\AppData\Local\Temp\ccBvSoi6.s 			page 11


 346 0024 5A64     		str	r2, [r3, #68]
 347 0026 5B6C     		ldr	r3, [r3, #68]
 348 0028 03F48073 		and	r3, r3, #256
 349 002c 0193     		str	r3, [sp, #4]
 350 002e 019B     		ldr	r3, [sp, #4]
 351              	.LBE2:
 174:Src/adc.c     ****     GPIO_InitStruct.Mode = GPIO_MODE_ANALOG;
 352              		.loc 1 174 0
 353 0030 0F23     		movs	r3, #15
 354 0032 0393     		str	r3, [sp, #12]
 175:Src/adc.c     ****     GPIO_InitStruct.Pull = GPIO_NOPULL;
 355              		.loc 1 175 0
 356 0034 0323     		movs	r3, #3
 357 0036 0493     		str	r3, [sp, #16]
 176:Src/adc.c     ****     HAL_GPIO_Init(GPIOA, &GPIO_InitStruct);
 358              		.loc 1 176 0
 359 0038 0595     		str	r5, [sp, #20]
 177:Src/adc.c     **** 
 360              		.loc 1 177 0
 361 003a 03A9     		add	r1, sp, #12
 362 003c 1F48     		ldr	r0, .L31+12
 363              	.LVL17:
 364 003e FFF7FEFF 		bl	HAL_GPIO_Init
 365              	.LVL18:
 181:Src/adc.c     ****     hdma_adc1.Init.Channel = DMA_CHANNEL_0;
 366              		.loc 1 181 0
 367 0042 1F48     		ldr	r0, .L31+16
 368 0044 1F4B     		ldr	r3, .L31+20
 369 0046 0360     		str	r3, [r0]
 182:Src/adc.c     ****     hdma_adc1.Init.Direction = DMA_PERIPH_TO_MEMORY;
 370              		.loc 1 182 0
 371 0048 4560     		str	r5, [r0, #4]
 183:Src/adc.c     ****     hdma_adc1.Init.PeriphInc = DMA_PINC_DISABLE;
 372              		.loc 1 183 0
 373 004a 8560     		str	r5, [r0, #8]
 184:Src/adc.c     ****     hdma_adc1.Init.MemInc = DMA_MINC_ENABLE;
 374              		.loc 1 184 0
 375 004c C560     		str	r5, [r0, #12]
 185:Src/adc.c     ****     hdma_adc1.Init.PeriphDataAlignment = DMA_PDATAALIGN_HALFWORD;
 376              		.loc 1 185 0
 377 004e 4FF48063 		mov	r3, #1024
 378 0052 0361     		str	r3, [r0, #16]
 186:Src/adc.c     ****     hdma_adc1.Init.MemDataAlignment = DMA_MDATAALIGN_HALFWORD;
 379              		.loc 1 186 0
 380 0054 4FF40063 		mov	r3, #2048
 381 0058 4361     		str	r3, [r0, #20]
 187:Src/adc.c     ****     hdma_adc1.Init.Mode = DMA_NORMAL;
 382              		.loc 1 187 0
 383 005a 4FF40053 		mov	r3, #8192
 384 005e 8361     		str	r3, [r0, #24]
 188:Src/adc.c     ****     hdma_adc1.Init.Priority = DMA_PRIORITY_HIGH;
 385              		.loc 1 188 0
 386 0060 C561     		str	r5, [r0, #28]
 189:Src/adc.c     ****     hdma_adc1.Init.FIFOMode = DMA_FIFOMODE_DISABLE;
 387              		.loc 1 189 0
 388 0062 4FF40033 		mov	r3, #131072
 389 0066 0362     		str	r3, [r0, #32]
ARM GAS  C:\Users\kotaro\AppData\Local\Temp\ccBvSoi6.s 			page 12


 190:Src/adc.c     ****     if (HAL_DMA_Init(&hdma_adc1) != HAL_OK)
 390              		.loc 1 190 0
 391 0068 4562     		str	r5, [r0, #36]
 191:Src/adc.c     ****     {
 392              		.loc 1 191 0
 393 006a FFF7FEFF 		bl	HAL_DMA_Init
 394              	.LVL19:
 395 006e 18B9     		cbnz	r0, .L30
 396              	.L25:
 196:Src/adc.c     **** 
 397              		.loc 1 196 0
 398 0070 134B     		ldr	r3, .L31+16
 399 0072 A363     		str	r3, [r4, #56]
 400 0074 9C63     		str	r4, [r3, #56]
 401 0076 CCE7     		b	.L23
 402              	.L30:
 193:Src/adc.c     ****     }
 403              		.loc 1 193 0
 404 0078 C121     		movs	r1, #193
 405 007a 1348     		ldr	r0, .L31+24
 406 007c FFF7FEFF 		bl	_Error_Handler
 407              	.LVL20:
 408 0080 F6E7     		b	.L25
 409              	.LVL21:
 410              	.L29:
 411              	.LBB3:
 208:Src/adc.c     ****   
 412              		.loc 1 208 0
 413 0082 0021     		movs	r1, #0
 414 0084 0291     		str	r1, [sp, #8]
 415 0086 0C4B     		ldr	r3, .L31+8
 416 0088 5A6C     		ldr	r2, [r3, #68]
 417 008a 42F40072 		orr	r2, r2, #512
 418 008e 5A64     		str	r2, [r3, #68]
 419 0090 5B6C     		ldr	r3, [r3, #68]
 420 0092 03F40073 		and	r3, r3, #512
 421 0096 0293     		str	r3, [sp, #8]
 422 0098 029B     		ldr	r3, [sp, #8]
 423              	.LBE3:
 213:Src/adc.c     ****     GPIO_InitStruct.Mode = GPIO_MODE_ANALOG;
 424              		.loc 1 213 0
 425 009a 1023     		movs	r3, #16
 426 009c 0393     		str	r3, [sp, #12]
 214:Src/adc.c     ****     GPIO_InitStruct.Pull = GPIO_NOPULL;
 427              		.loc 1 214 0
 428 009e 0323     		movs	r3, #3
 429 00a0 0493     		str	r3, [sp, #16]
 215:Src/adc.c     ****     HAL_GPIO_Init(GPIOA, &GPIO_InitStruct);
 430              		.loc 1 215 0
 431 00a2 0591     		str	r1, [sp, #20]
 216:Src/adc.c     **** 
 432              		.loc 1 216 0
 433 00a4 03A9     		add	r1, sp, #12
 434 00a6 0548     		ldr	r0, .L31+12
 435              	.LVL22:
 436 00a8 FFF7FEFF 		bl	HAL_GPIO_Init
 437              	.LVL23:
ARM GAS  C:\Users\kotaro\AppData\Local\Temp\ccBvSoi6.s 			page 13


 438              		.loc 1 222 0
 439 00ac B1E7     		b	.L23
 440              	.L32:
 441 00ae 00BF     		.align	2
 442              	.L31:
 443 00b0 00200140 		.word	1073815552
 444 00b4 00210140 		.word	1073815808
 445 00b8 00380240 		.word	1073887232
 446 00bc 00000240 		.word	1073872896
 447 00c0 00000000 		.word	hdma_adc1
 448 00c4 10640240 		.word	1073898512
 449 00c8 00000000 		.word	.LC0
 450              		.cfi_endproc
 451              	.LFE128:
 453              		.section	.text.HAL_ADC_MspDeInit,"ax",%progbits
 454              		.align	1
 455              		.global	HAL_ADC_MspDeInit
 456              		.syntax unified
 457              		.thumb
 458              		.thumb_func
 459              		.fpu fpv4-sp-d16
 461              	HAL_ADC_MspDeInit:
 462              	.LFB129:
 223:Src/adc.c     **** 
 224:Src/adc.c     **** void HAL_ADC_MspDeInit(ADC_HandleTypeDef* adcHandle)
 225:Src/adc.c     **** {
 463              		.loc 1 225 0
 464              		.cfi_startproc
 465              		@ args = 0, pretend = 0, frame = 0
 466              		@ frame_needed = 0, uses_anonymous_args = 0
 467              	.LVL24:
 468 0000 10B5     		push	{r4, lr}
 469              	.LCFI12:
 470              		.cfi_def_cfa_offset 8
 471              		.cfi_offset 4, -8
 472              		.cfi_offset 14, -4
 226:Src/adc.c     **** 
 227:Src/adc.c     ****   if(adcHandle->Instance==ADC1)
 473              		.loc 1 227 0
 474 0002 0368     		ldr	r3, [r0]
 475 0004 0F4A     		ldr	r2, .L39
 476 0006 9342     		cmp	r3, r2
 477 0008 03D0     		beq	.L37
 228:Src/adc.c     ****   {
 229:Src/adc.c     ****   /* USER CODE BEGIN ADC1_MspDeInit 0 */
 230:Src/adc.c     **** 
 231:Src/adc.c     ****   /* USER CODE END ADC1_MspDeInit 0 */
 232:Src/adc.c     ****     /* Peripheral clock disable */
 233:Src/adc.c     ****     __HAL_RCC_ADC1_CLK_DISABLE();
 234:Src/adc.c     ****   
 235:Src/adc.c     ****     /**ADC1 GPIO Configuration    
 236:Src/adc.c     ****     PA0-WKUP     ------> ADC1_IN0
 237:Src/adc.c     ****     PA1     ------> ADC1_IN1
 238:Src/adc.c     ****     PA2     ------> ADC1_IN2
 239:Src/adc.c     ****     PA3     ------> ADC1_IN3 
 240:Src/adc.c     ****     */
 241:Src/adc.c     ****     HAL_GPIO_DeInit(GPIOA, GPIO_PIN_0|GPIO_PIN_1|GPIO_PIN_2|GPIO_PIN_3);
ARM GAS  C:\Users\kotaro\AppData\Local\Temp\ccBvSoi6.s 			page 14


 242:Src/adc.c     **** 
 243:Src/adc.c     ****     /* ADC1 DMA DeInit */
 244:Src/adc.c     ****     HAL_DMA_DeInit(adcHandle->DMA_Handle);
 245:Src/adc.c     ****   /* USER CODE BEGIN ADC1_MspDeInit 1 */
 246:Src/adc.c     **** 
 247:Src/adc.c     ****   /* USER CODE END ADC1_MspDeInit 1 */
 248:Src/adc.c     ****   }
 249:Src/adc.c     ****   else if(adcHandle->Instance==ADC2)
 478              		.loc 1 249 0
 479 000a 0F4A     		ldr	r2, .L39+4
 480 000c 9342     		cmp	r3, r2
 481 000e 0FD0     		beq	.L38
 482              	.LVL25:
 483              	.L33:
 250:Src/adc.c     ****   {
 251:Src/adc.c     ****   /* USER CODE BEGIN ADC2_MspDeInit 0 */
 252:Src/adc.c     **** 
 253:Src/adc.c     ****   /* USER CODE END ADC2_MspDeInit 0 */
 254:Src/adc.c     ****     /* Peripheral clock disable */
 255:Src/adc.c     ****     __HAL_RCC_ADC2_CLK_DISABLE();
 256:Src/adc.c     ****   
 257:Src/adc.c     ****     /**ADC2 GPIO Configuration    
 258:Src/adc.c     ****     PA4     ------> ADC2_IN4 
 259:Src/adc.c     ****     */
 260:Src/adc.c     ****     HAL_GPIO_DeInit(GPIOA, GPIO_PIN_4);
 261:Src/adc.c     **** 
 262:Src/adc.c     ****   /* USER CODE BEGIN ADC2_MspDeInit 1 */
 263:Src/adc.c     **** 
 264:Src/adc.c     ****   /* USER CODE END ADC2_MspDeInit 1 */
 265:Src/adc.c     ****   }
 266:Src/adc.c     **** } 
 484              		.loc 1 266 0
 485 0010 10BD     		pop	{r4, pc}
 486              	.LVL26:
 487              	.L37:
 488 0012 0446     		mov	r4, r0
 233:Src/adc.c     ****   
 489              		.loc 1 233 0
 490 0014 02F58C32 		add	r2, r2, #71680
 491 0018 536C     		ldr	r3, [r2, #68]
 492 001a 23F48073 		bic	r3, r3, #256
 493 001e 5364     		str	r3, [r2, #68]
 241:Src/adc.c     **** 
 494              		.loc 1 241 0
 495 0020 0F21     		movs	r1, #15
 496 0022 0A48     		ldr	r0, .L39+8
 497              	.LVL27:
 498 0024 FFF7FEFF 		bl	HAL_GPIO_DeInit
 499              	.LVL28:
 244:Src/adc.c     ****   /* USER CODE BEGIN ADC1_MspDeInit 1 */
 500              		.loc 1 244 0
 501 0028 A06B     		ldr	r0, [r4, #56]
 502 002a FFF7FEFF 		bl	HAL_DMA_DeInit
 503              	.LVL29:
 504 002e EFE7     		b	.L33
 505              	.LVL30:
 506              	.L38:
ARM GAS  C:\Users\kotaro\AppData\Local\Temp\ccBvSoi6.s 			page 15


 255:Src/adc.c     ****   
 507              		.loc 1 255 0
 508 0030 074A     		ldr	r2, .L39+12
 509 0032 536C     		ldr	r3, [r2, #68]
 510 0034 23F40073 		bic	r3, r3, #512
 511 0038 5364     		str	r3, [r2, #68]
 260:Src/adc.c     **** 
 512              		.loc 1 260 0
 513 003a 1021     		movs	r1, #16
 514 003c 0348     		ldr	r0, .L39+8
 515              	.LVL31:
 516 003e FFF7FEFF 		bl	HAL_GPIO_DeInit
 517              	.LVL32:
 518              		.loc 1 266 0
 519 0042 E5E7     		b	.L33
 520              	.L40:
 521              		.align	2
 522              	.L39:
 523 0044 00200140 		.word	1073815552
 524 0048 00210140 		.word	1073815808
 525 004c 00000240 		.word	1073872896
 526 0050 00380240 		.word	1073887232
 527              		.cfi_endproc
 528              	.LFE129:
 530              		.comm	hdma_adc1,96,4
 531              		.comm	hadc2,72,4
 532              		.comm	hadc1,72,4
 533              		.global	thresh_fr
 534              		.global	thresh_r
 535              		.global	thresh_l
 536              		.section	.data.thresh_fr,"aw",%progbits
 537              		.align	1
 540              	thresh_fr:
 541 0000 6009     		.short	2400
 542              		.section	.data.thresh_l,"aw",%progbits
 543              		.align	1
 546              	thresh_l:
 547 0000 6C07     		.short	1900
 548              		.section	.data.thresh_r,"aw",%progbits
 549              		.align	1
 552              	thresh_r:
 553 0000 9808     		.short	2200
 554              		.section	.rodata.MX_ADC1_Init.str1.4,"aMS",%progbits,1
 555              		.align	2
 556              	.LC0:
 557 0000 5372632F 		.ascii	"Src/adc.c\000"
 557      6164632E 
 557      6300
 558              		.text
 559              	.Letext0:
 560              		.file 2 "c:\\program files (x86)\\gnu tools arm embedded\\7 2017-q4-major\\arm-none-eabi\\include\
 561              		.file 3 "c:\\program files (x86)\\gnu tools arm embedded\\7 2017-q4-major\\arm-none-eabi\\include\
 562              		.file 4 "Drivers/CMSIS/Include/core_cm4.h"
 563              		.file 5 "Drivers/CMSIS/Device/ST/STM32F4xx/Include/system_stm32f4xx.h"
 564              		.file 6 "Drivers/CMSIS/Device/ST/STM32F4xx/Include/stm32f405xx.h"
 565              		.file 7 "c:\\program files (x86)\\gnu tools arm embedded\\7 2017-q4-major\\arm-none-eabi\\include\
 566              		.file 8 "c:\\program files (x86)\\gnu tools arm embedded\\7 2017-q4-major\\arm-none-eabi\\include\
ARM GAS  C:\Users\kotaro\AppData\Local\Temp\ccBvSoi6.s 			page 16


 567              		.file 9 "c:\\program files (x86)\\gnu tools arm embedded\\7 2017-q4-major\\lib\\gcc\\arm-none-eabi
 568              		.file 10 "c:\\program files (x86)\\gnu tools arm embedded\\7 2017-q4-major\\arm-none-eabi\\include
 569              		.file 11 "Drivers/CMSIS/Device/ST/STM32F4xx/Include/stm32f4xx.h"
 570              		.file 12 "Drivers/STM32F4xx_HAL_Driver/Inc/stm32f4xx_hal_def.h"
 571              		.file 13 "Drivers/STM32F4xx_HAL_Driver/Inc/stm32f4xx_hal_gpio.h"
 572              		.file 14 "Drivers/STM32F4xx_HAL_Driver/Inc/stm32f4xx_hal_dma.h"
 573              		.file 15 "Drivers/STM32F4xx_HAL_Driver/Inc/stm32f4xx_hal_adc.h"
 574              		.file 16 "Inc/adc.h"
 575              		.file 17 "Inc/global.h"
 576              		.file 18 "Inc/dma.h"
ARM GAS  C:\Users\kotaro\AppData\Local\Temp\ccBvSoi6.s 			page 17

